; Function Attrs: mustprogress nofree norecurse nosync nounwind willreturn memory(argmem: readwrite) uwtable
define dso_local void @_ZN4Json5Value3endEv(ptr dead_on_unwind noalias nocapture writable writeonly sret(%"class.Json::ValueIterator") align 8 %0, ptr nocapture noundef nonnull readonly align 8 dereferenceable(40) %1) local_unnamed_addr #5 align 2 {
  %3 = getelementptr inbounds i8, ptr %1, i64 8
  %4 = load i16, ptr %3, align 8
  %5 = and i16 %4, 254
  %switch = icmp eq i16 %5, 6
  br i1 %switch, label %6, label %11

6:                                                ; preds = %2
  %7 = load ptr, ptr %1, align 8
  %.not = icmp eq ptr %7, null
  br i1 %.not, label %11, label %8

8:                                                ; preds = %6
  %9 = getelementptr inbounds i8, ptr %7, i64 8
  %10 = ptrtoint ptr %9 to i64
  br label %11

11:                                               ; preds = %6, %2, %8
  %storemerge = phi i64 [ %10, %8 ], [ 0, %2 ], [ 0, %6 ]
  %.sink = phi i8 [ 0, %8 ], [ 1, %2 ], [ 1, %6 ]
  store i64 %storemerge, ptr %0, align 8
  %12 = getelementptr inbounds i8, ptr %0, i64 8
  store i8 %.sink, ptr %12, align 8
  ret void
}